target datalayout = "e-m:e-p270:32:32-p271:32:32-p272:64:64-i64:64-i128:128-f80:128-n8:16:32:64-S128"
target triple = "x86_64-pc-linux-gnu"

%struct.strbuf = type { i64, i64, ptr }
%struct.__va_list_tag = type { i32, i32, ptr, ptr }

@the_repository = external global ptr, align 8

; Function Attrs: inlinehint nounwind uwtable
define internal ptr @git_common_path(ptr noundef %0, ...) #3 {
  %2 = alloca ptr, align 8
  %3 = alloca ptr, align 8
  %4 = alloca [1 x %struct.__va_list_tag], align 16
  store ptr %0, ptr %2, align 8, !tbaa !11
  call void @llvm.lifetime.start.p0(i64 8, ptr %3) #11
  %5 = call ptr @get_pathname()
  store ptr %5, ptr %3, align 8, !tbaa !92
  call void @llvm.lifetime.start.p0(i64 24, ptr %4) #11
  %6 = getelementptr inbounds [1 x %struct.__va_list_tag], ptr %4, i64 0, i64 0
  call void @llvm.va_start.p0(ptr %6)
  %7 = load ptr, ptr @the_repository, align 8, !tbaa !13
  %8 = load ptr, ptr %3, align 8, !tbaa !92
  %9 = load ptr, ptr %2, align 8, !tbaa !11
  %10 = getelementptr inbounds [1 x %struct.__va_list_tag], ptr %4, i64 0, i64 0
  call void @repo_common_pathv(ptr noundef %7, ptr noundef %8, ptr noundef %9, ptr noundef %10)
  %11 = getelementptr inbounds [1 x %struct.__va_list_tag], ptr %4, i64 0, i64 0
  call void @llvm.va_end.p0(ptr %11)
  %12 = load ptr, ptr %3, align 8, !tbaa !92
  %13 = getelementptr inbounds nuw %struct.strbuf, ptr %12, i32 0, i32 2
  %14 = load ptr, ptr %13, align 8, !tbaa !55
  call void @llvm.lifetime.end.p0(i64 24, ptr %4) #11
  call void @llvm.lifetime.end.p0(i64 8, ptr %3) #11
  ret ptr %14
}